; ModuleID = '47/1631.c'
source_filename = "47/1631.c"
target datalayout = "e-m:e-p270:32:32-p271:32:32-p272:64:64-i64:64-f80:128-n8:16:32:64-S128"
target triple = "x86_64-pc-linux-gnu"

@.str = private unnamed_addr constant [3 x i8] c"%d\00", align 1
@.str.1 = private unnamed_addr constant [4 x i8] c" %d\00", align 1

; Function Attrs: noinline nounwind uwtable
define dso_local i32 @main() #0 {
  %1 = alloca i32, align 4
  %2 = alloca i32, align 4
  %3 = alloca i32, align 4
  %4 = alloca i32, align 4
  %5 = alloca [100 x i32], align 16
  store i32 0, i32* %1, align 4
  %6 = call i32 (i8*, ...) @__isoc99_scanf(i8* getelementptr inbounds ([3 x i8], [3 x i8]* @.str, i64 0, i64 0), i32* %2)
  store i32 0, i32* %3, align 4
  br label %7

7:                                                ; preds = %16, %0
  %8 = load i32, i32* %3, align 4
  %9 = load i32, i32* %2, align 4
  %10 = icmp slt i32 %8, %9
  br i1 %10, label %11, label %19

11:                                               ; preds = %7
  %12 = load i32, i32* %3, align 4
  %13 = sext i32 %12 to i64
  %14 = getelementptr inbounds [100 x i32], [100 x i32]* %5, i64 0, i64 %13
  %15 = call i32 (i8*, ...) @__isoc99_scanf(i8* getelementptr inbounds ([3 x i8], [3 x i8]* @.str, i64 0, i64 0), i32* %14)
  br label %16

16:                                               ; preds = %11
  %17 = load i32, i32* %3, align 4
  %18 = add nsw i32 %17, 1
  store i32 %18, i32* %3, align 4
  br label %7

19:                                               ; preds = %7
  %20 = load i32, i32* %2, align 4
  %21 = srem i32 %20, 2
  %22 = icmp eq i32 %21, 1
  br i1 %22, label %23, label %73

23:                                               ; preds = %19
  store i32 0, i32* %3, align 4
  br label %24

24:                                               ; preds = %52, %23
  %25 = load i32, i32* %3, align 4
  %26 = load i32, i32* %2, align 4
  %27 = sdiv i32 %26, 2
  %28 = add nsw i32 %27, 1
  %29 = icmp slt i32 %25, %28
  br i1 %29, label %30, label %55

30:                                               ; preds = %24
  %31 = load i32, i32* %3, align 4
  %32 = sext i32 %31 to i64
  %33 = getelementptr inbounds [100 x i32], [100 x i32]* %5, i64 0, i64 %32
  %34 = load i32, i32* %33, align 4
  store i32 %34, i32* %4, align 4
  %35 = load i32, i32* %2, align 4
  %36 = load i32, i32* %3, align 4
  %37 = sub nsw i32 %35, %36
  %38 = sub nsw i32 %37, 1
  %39 = sext i32 %38 to i64
  %40 = getelementptr inbounds [100 x i32], [100 x i32]* %5, i64 0, i64 %39
  %41 = load i32, i32* %40, align 4
  %42 = load i32, i32* %3, align 4
  %43 = sext i32 %42 to i64
  %44 = getelementptr inbounds [100 x i32], [100 x i32]* %5, i64 0, i64 %43
  store i32 %41, i32* %44, align 4
  %45 = load i32, i32* %4, align 4
  %46 = load i32, i32* %2, align 4
  %47 = load i32, i32* %3, align 4
  %48 = sub nsw i32 %46, %47
  %49 = sub nsw i32 %48, 1
  %50 = sext i32 %49 to i64
  %51 = getelementptr inbounds [100 x i32], [100 x i32]* %5, i64 0, i64 %50
  store i32 %45, i32* %51, align 4
  br label %52

52:                                               ; preds = %30
  %53 = load i32, i32* %3, align 4
  %54 = add nsw i32 %53, 1
  store i32 %54, i32* %3, align 4
  br label %24

55:                                               ; preds = %24
  %56 = getelementptr inbounds [100 x i32], [100 x i32]* %5, i64 0, i64 0
  %57 = load i32, i32* %56, align 16
  %58 = call i32 (i8*, ...) @printf(i8* getelementptr inbounds ([3 x i8], [3 x i8]* @.str, i64 0, i64 0), i32 %57)
  store i32 1, i32* %3, align 4
  br label %59

59:                                               ; preds = %69, %55
  %60 = load i32, i32* %3, align 4
  %61 = load i32, i32* %2, align 4
  %62 = icmp slt i32 %60, %61
  br i1 %62, label %63, label %72

63:                                               ; preds = %59
  %64 = load i32, i32* %3, align 4
  %65 = sext i32 %64 to i64
  %66 = getelementptr inbounds [100 x i32], [100 x i32]* %5, i64 0, i64 %65
  %67 = load i32, i32* %66, align 4
  %68 = call i32 (i8*, ...) @printf(i8* getelementptr inbounds ([4 x i8], [4 x i8]* @.str.1, i64 0, i64 0), i32 %67)
  br label %69

69:                                               ; preds = %63
  %70 = load i32, i32* %3, align 4
  %71 = add nsw i32 %70, 1
  store i32 %71, i32* %3, align 4
  br label %59

72:                                               ; preds = %59
  br label %122

73:                                               ; preds = %19
  store i32 0, i32* %3, align 4
  br label %74

74:                                               ; preds = %101, %73
  %75 = load i32, i32* %3, align 4
  %76 = load i32, i32* %2, align 4
  %77 = sdiv i32 %76, 2
  %78 = icmp slt i32 %75, %77
  br i1 %78, label %79, label %104

79:                                               ; preds = %74
  %80 = load i32, i32* %3, align 4
  %81 = sext i32 %80 to i64
  %82 = getelementptr inbounds [100 x i32], [100 x i32]* %5, i64 0, i64 %81
  %83 = load i32, i32* %82, align 4
  store i32 %83, i32* %4, align 4
  %84 = load i32, i32* %2, align 4
  %85 = load i32, i32* %3, align 4
  %86 = sub nsw i32 %84, %85
  %87 = sub nsw i32 %86, 1
  %88 = sext i32 %87 to i64
  %89 = getelementptr inbounds [100 x i32], [100 x i32]* %5, i64 0, i64 %88
  %90 = load i32, i32* %89, align 4
  %91 = load i32, i32* %3, align 4
  %92 = sext i32 %91 to i64
  %93 = getelementptr inbounds [100 x i32], [100 x i32]* %5, i64 0, i64 %92
  store i32 %90, i32* %93, align 4
  %94 = load i32, i32* %4, align 4
  %95 = load i32, i32* %2, align 4
  %96 = load i32, i32* %3, align 4
  %97 = sub nsw i32 %95, %96
  %98 = sub nsw i32 %97, 1
  %99 = sext i32 %98 to i64
  %100 = getelementptr inbounds [100 x i32], [100 x i32]* %5, i64 0, i64 %99
  store i32 %94, i32* %100, align 4
  br label %101

101:                                              ; preds = %79
  %102 = load i32, i32* %3, align 4
  %103 = add nsw i32 %102, 1
  store i32 %103, i32* %3, align 4
  br label %74

104:                                              ; preds = %74
  %105 = getelementptr inbounds [100 x i32], [100 x i32]* %5, i64 0, i64 0
  %106 = load i32, i32* %105, align 16
  %107 = call i32 (i8*, ...) @printf(i8* getelementptr inbounds ([3 x i8], [3 x i8]* @.str, i64 0, i64 0), i32 %106)
  store i32 1, i32* %3, align 4
  br label %108

108:                                              ; preds = %118, %104
  %109 = load i32, i32* %3, align 4
  %110 = load i32, i32* %2, align 4
  %111 = icmp slt i32 %109, %110
  br i1 %111, label %112, label %121

112:                                              ; preds = %108
  %113 = load i32, i32* %3, align 4
  %114 = sext i32 %113 to i64
  %115 = getelementptr inbounds [100 x i32], [100 x i32]* %5, i64 0, i64 %114
  %116 = load i32, i32* %115, align 4
  %117 = call i32 (i8*, ...) @printf(i8* getelementptr inbounds ([4 x i8], [4 x i8]* @.str.1, i64 0, i64 0), i32 %116)
  br label %118

118:                                              ; preds = %112
  %119 = load i32, i32* %3, align 4
  %120 = add nsw i32 %119, 1
  store i32 %120, i32* %3, align 4
  br label %108

121:                                              ; preds = %108
  br label %122

122:                                              ; preds = %121, %72
  ret i32 0
}

declare dso_local i32 @__isoc99_scanf(i8*, ...) #1

declare dso_local i32 @printf(i8*, ...) #1


!llvm.module.flags = !{!0}
!llvm.ident = !{!1}

!0 = !{i32 1, !"wchar_size", i32 4}
!1 = !{!"clang version 10.0.0-4ubuntu1 "}
